target datalayout = "e-m:e-p270:32:32-p271:32:32-p272:64:64-i64:64-i128:128-f80:128-n8:16:32:64-S128"
target triple = "x86_64-pc-linux-gnu"

%struct.SDL_WaylandSeat = type { ptr, ptr, ptr, ptr, ptr, %struct.wl_list, i32, i32, %struct.anon, %struct.anon.1, %struct.anon.4, %struct.anon.5, %struct.anon.6 }
%struct.wl_list = type { ptr, ptr }
%struct.anon = type { ptr, ptr, ptr, ptr, ptr, %struct.SDL_WaylandKeyboardRepeat, i64, i16, i16, i32, i8, %struct.anon.0 }
%struct.SDL_WaylandKeyboardRepeat = type { i32, i32, i32, i8, i8, i32, i64, i64, i64, i32, [8 x i8] }
%struct.anon.0 = type { ptr, ptr, ptr, ptr, i32, i32, i32, i32, i32, i32, i32, i32, i32, i32, i32 }
%struct.anon.1 = type { ptr, ptr, ptr, ptr, ptr, ptr, ptr, ptr, i64, i32, i32, %struct.SDL_Point, i32, %struct.anon.2, %struct.anon.3 }
%struct.SDL_Point = type { i32, i32 }
%struct.anon.2 = type { i32, float, i32, float, i64, i32 }
%struct.anon.3 = type { ptr, ptr, ptr, i64, i64, i32 }
%struct.anon.4 = type { ptr, ptr, i64, %struct.wl_list }
%struct.anon.5 = type { ptr, %struct.SDL_Rect, i8, i8 }
%struct.SDL_Rect = type { i32, i32, i32, i32 }
%struct.anon.6 = type { ptr, %struct.wl_list }

@.str.26 = private unnamed_addr constant [1 x i8] zeroinitializer, align 1

; Function Attrs: nounwind uwtable
define internal void @text_input_preedit_string(ptr noundef %0, ptr noundef %1, ptr noundef %2, i32 noundef %3, i32 noundef %4) #0 {
  %6 = alloca ptr, align 8
  %7 = alloca ptr, align 8
  %8 = alloca ptr, align 8
  %9 = alloca i32, align 4
  %10 = alloca i32, align 4
  %11 = alloca ptr, align 8
  %12 = alloca i32, align 4
  %13 = alloca i32, align 4
  %14 = alloca i32, align 4
  store ptr %0, ptr %6, align 8
  store ptr %1, ptr %7, align 8
  store ptr %2, ptr %8, align 8
  store i32 %3, ptr %9, align 4
  store i32 %4, ptr %10, align 4
  call void @llvm.lifetime.start.p0(i64 8, ptr %11) #10
  %15 = load ptr, ptr %6, align 8
  store ptr %15, ptr %11, align 8
  %16 = load ptr, ptr %11, align 8
  %17 = getelementptr inbounds nuw %struct.SDL_WaylandSeat, ptr %16, i32 0, i32 11
  %18 = getelementptr inbounds nuw %struct.anon.5, ptr %17, i32 0, i32 3
  store i8 1, ptr %18, align 1
  %19 = load ptr, ptr %8, align 8
  %20 = icmp ne ptr %19, null
  br i1 %20, label %21, label %61

21:                                               ; preds = %5
  call void @llvm.lifetime.start.p0(i64 4, ptr %12) #10
  %22 = load i32, ptr %9, align 4
  %23 = icmp sge i32 %22, 0
  br i1 %23, label %24, label %30

24:                                               ; preds = %21
  %25 = load ptr, ptr %8, align 8
  %26 = load i32, ptr %9, align 4
  %27 = sext i32 %26 to i64
  %28 = call i64 @SDL_utf8strnlen_REAL(ptr noundef %25, i64 noundef %27)
  %29 = trunc i64 %28 to i32
  br label %31

30:                                               ; preds = %21
  br label %31

31:                                               ; preds = %30, %24
  %32 = phi i32 [ %29, %24 ], [ -1, %30 ]
  store i32 %32, ptr %12, align 4
  call void @llvm.lifetime.start.p0(i64 4, ptr %13) #10
  %33 = load i32, ptr %10, align 4
  %34 = icmp sge i32 %33, 0
  br i1 %34, label %35, label %41

35:                                               ; preds = %31
  %36 = load ptr, ptr %8, align 8
  %37 = load i32, ptr %10, align 4
  %38 = sext i32 %37 to i64
  %39 = call i64 @SDL_utf8strnlen_REAL(ptr noundef %36, i64 noundef %38)
  %40 = trunc i64 %39 to i32
  br label %42

41:                                               ; preds = %31
  br label %42

42:                                               ; preds = %41, %35
  %43 = phi i32 [ %40, %35 ], [ -1, %41 ]
  store i32 %43, ptr %13, align 4
  call void @llvm.lifetime.start.p0(i64 4, ptr %14) #10
  %44 = load i32, ptr %13, align 4
  %45 = icmp sge i32 %44, 0
  br i1 %45, label %46, label %56

46:                                               ; preds = %42
  %47 = load i32, ptr %12, align 4
  %48 = icmp sge i32 %47, 0
  br i1 %48, label %49, label %53

49:                                               ; preds = %46
  %50 = load i32, ptr %13, align 4
  %51 = load i32, ptr %12, align 4
  %52 = sub nsw i32 %50, %51
  store i32 %52, ptr %14, align 4
  br label %55

53:                                               ; preds = %46
  %54 = load i32, ptr %13, align 4
  store i32 %54, ptr %14, align 4
  br label %55

55:                                               ; preds = %53, %49
  br label %57

56:                                               ; preds = %42
  store i32 -1, ptr %14, align 4
  br label %57

57:                                               ; preds = %56, %55
  %58 = load ptr, ptr %8, align 8
  %59 = load i32, ptr %12, align 4
  %60 = load i32, ptr %14, align 4
  call void @SDL_SendEditingText(ptr noundef %58, i32 noundef %59, i32 noundef %60)
  call void @llvm.lifetime.end.p0(i64 4, ptr %14) #10
  call void @llvm.lifetime.end.p0(i64 4, ptr %13) #10
  call void @llvm.lifetime.end.p0(i64 4, ptr %12) #10
  br label %62

61:                                               ; preds = %5
  call void @SDL_SendEditingText(ptr noundef @.str.26, i32 noundef 0, i32 noundef 0)
  br label %62

62:                                               ; preds = %61, %57
  call void @llvm.lifetime.end.p0(i64 8, ptr %11) #10
  ret void
}