; Function Attrs: nounwind uwtable
define internal void @text_input_preedit_string(ptr noundef writeonly captures(none) initializes((513, 514)) %0, ptr readnone captures(none) %1, ptr noundef %2, i32 noundef %3, i32 noundef %4) #0 {
  %6 = getelementptr inbounds nuw i8, ptr %0, i64 513
  store i8 1, ptr %6, align 1
  %.not = icmp eq ptr %2, null
  br i1 %.not, label %23, label %7

7:                                                ; preds = %5
  %8 = icmp sgt i32 %3, -1
  br i1 %8, label %9, label %13

9:                                                ; preds = %7
  %10 = zext nneg i32 %3 to i64
  %11 = tail call i64 @SDL_utf8strnlen_REAL(ptr noundef nonnull %2, i64 noundef %10) #12
  %12 = trunc i64 %11 to i32
  br label %13

13:                                               ; preds = %7, %9
  %14 = phi i32 [ %12, %9 ], [ -1, %7 ]
  %15 = icmp sgt i32 %4, -1
  br i1 %15, label %16, label %.thread

16:                                               ; preds = %13
  %17 = zext nneg i32 %4 to i64
  %18 = tail call i64 @SDL_utf8strnlen_REAL(ptr noundef nonnull %2, i64 noundef %17) #12
  %.fr24 = freeze i64 %18
  %19 = trunc i64 %.fr24 to i32
  %20 = icmp sgt i32 %19, -1
  %21 = tail call i32 @llvm.smax.i32(i32 %14, i32 0)
  %spec.select = sub nsw i32 %19, %21
  %spec.select23 = select i1 %20, i32 %spec.select, i32 -1
  br label %.thread

.thread:                                          ; preds = %16, %13
  %22 = phi i32 [ -1, %13 ], [ %spec.select23, %16 ]
  tail call void @SDL_SendEditingText(ptr noundef nonnull %2, i32 noundef %14, i32 noundef %22) #12
  br label %24

23:                                               ; preds = %5
  tail call void @SDL_SendEditingText(ptr noundef nonnull @.str.26, i32 noundef 0, i32 noundef 0) #12
  br label %24

24:                                               ; preds = %23, %.thread
  ret void
}